target datalayout = "e-m:e-p270:32:32-p271:32:32-p272:64:64-i64:64-i128:128-f80:128-n8:16:32:64-S128"
target triple = "x86_64-pc-linux-gnu"

%struct.ui_string_st = type { i32, ptr, i32, ptr, i64, %union.anon, i32 }
%union.anon = type { %struct.anon.0 }
%struct.anon.0 = type { ptr, ptr, ptr }

; Function Attrs: nounwind uwtable
define i32 @UI_get_result_string_length(ptr noundef %0) #0 {
  %2 = alloca i32, align 4
  %3 = alloca ptr, align 8
  store ptr %0, ptr %3, align 8, !tbaa !26
  %4 = load ptr, ptr %3, align 8, !tbaa !26
  %5 = getelementptr inbounds nuw %struct.ui_string_st, ptr %4, i32 0, i32 0
  %6 = load i32, ptr %5, align 8, !tbaa !32
  switch i32 %6, label %13 [
    i32 1, label %7
    i32 2, label %7
    i32 0, label %12
    i32 3, label %12
    i32 4, label %12
    i32 5, label %12
  ]

7:                                                ; preds = %1, %1
  %8 = load ptr, ptr %3, align 8, !tbaa !26
  %9 = getelementptr inbounds nuw %struct.ui_string_st, ptr %8, i32 0, i32 4
  %10 = load i64, ptr %9, align 8, !tbaa !41
  %11 = trunc i64 %10 to i32
  store i32 %11, ptr %2, align 4
  br label %14

12:                                               ; preds = %1, %1, %1, %1
  br label %13

13:                                               ; preds = %1, %12
  store i32 -1, ptr %2, align 4
  br label %14

14:                                               ; preds = %13, %7
  %15 = load i32, ptr %2, align 4
  ret i32 %15
}